target datalayout = "e-m:e-p270:32:32-p271:32:32-p272:64:64-i64:64-i128:128-f80:128-n8:16:32:64-S128"
target triple = "x86_64-pc-linux-gnu"

%struct.rev_info = type { ptr, %struct.object_array, ptr, %struct.object_array, %struct.rev_cmdline_info, %struct.list_objects_filter_options, %struct.ref_exclusions, ptr, ptr, ptr, %struct.pathspec, i32, i32, i32, i32, i64, i32, i32, %struct.date_mode, i32, i32, i32, i32, ptr, i32, i32, ptr, ptr, i32, ptr, ptr, %struct.ident_split, ptr, i32, ptr, ptr, ptr, i32, i32, i32, ptr, %struct.grep_opt, ptr, i32, i32, i64, i64, i64, i32, i32, ptr, ptr, ptr, %struct.diff_options, %struct.diff_options, ptr, %struct.decoration, %struct.decoration, %struct.decoration, %struct.display_notes_opt, ptr, ptr, ptr, ptr, ptr, i32, ptr, i32, i32, i32, %struct.decoration, ptr, ptr, ptr, ptr, ptr, ptr, ptr, i32, ptr, i32, ptr, %struct.oidset }
%struct.object_array = type { i32, i32, ptr }
%struct.rev_cmdline_info = type { i32, i32, ptr }
%struct.list_objects_filter_options = type { %struct.strbuf, i32, i8, ptr, i64, i64, i32, i64, i64, ptr }
%struct.strbuf = type { i64, i64, ptr }
%struct.ref_exclusions = type { %struct.string_list, %struct.strvec, i8 }
%struct.string_list = type { ptr, i64, i64, i8, ptr }
%struct.strvec = type { ptr, i64, i64 }
%struct.pathspec = type { i32, i8, i32, i32, ptr }
%struct.date_mode = type { i32, i32, ptr }
%struct.ident_split = type { ptr, ptr, ptr, ptr, ptr, ptr, ptr, ptr }
%struct.grep_opt = type { ptr, ptr, ptr, ptr, ptr, ptr, i32, i32, i32, i32, i32, i32, i32, i32, i32, i32, i32, i32, i32, i32, i32, i32, i32, i32, i32, i32, i32, i32, i32, i32, i32, i32, [9 x [75 x i8]], i32, i32, i32, i32, i32, i32, i32, ptr, ptr, ptr }
%struct.diff_options = type { ptr, ptr, i32, i32, ptr, i32, ptr, i64, i64, ptr, ptr, ptr, ptr, %struct.diff_flags, i32, i32, i32, i32, i32, i32, i32, i32, i32, i32, i32, i32, i32, i32, i32, i32, i32, i32, i32, i32, i32, i32, ptr, i32, ptr, i32, i32, ptr, i64, i64, i32, i32, i32, i32, ptr, i32, i32, ptr, i32, i32, ptr, ptr, i32, [3 x i8], %struct.pathspec, ptr, ptr, ptr, ptr, ptr, ptr, ptr, ptr, i32, ptr, i32, i32, ptr, ptr, i32 }
%struct.diff_flags = type { i32, i32, i32, i32, i32, i32, i32, i32, i32, i32, i32, i32, i32, i32, i32, i32, i32, i32, i32, i32, i32, i32, i32, i32, i32, i32, i32, i32, i32, i32, i32, i32, i32, i32, i32 }
%struct.display_notes_opt = type { i32, %struct.string_list }
%struct.decoration = type { ptr, i32, i32, ptr }
%struct.oidset = type { %struct.kh_oid_set }
%struct.kh_oid_set = type { i32, i32, i32, i32, ptr, ptr, ptr }

; Function Attrs: nounwind uwtable
define internal void @suppress(ptr noundef %0) #0 {
  %2 = alloca ptr, align 8
  store ptr %0, ptr %2, align 8, !tbaa !12
  %3 = load ptr, ptr %2, align 8, !tbaa !12
  %4 = getelementptr inbounds nuw %struct.rev_info, ptr %3, i32 0, i32 15
  %5 = load i64, ptr %4, align 8
  %6 = and i64 %5, -18014398509481985
  %7 = or i64 %6, 0
  store i64 %7, ptr %4, align 8
  %8 = load ptr, ptr %2, align 8, !tbaa !12
  %9 = getelementptr inbounds nuw %struct.rev_info, ptr %8, i32 0, i32 15
  %10 = load i64, ptr %9, align 8
  %11 = and i64 %10, -288230376151711745
  %12 = or i64 %11, 0
  store i64 %12, ptr %9, align 8
  %13 = load ptr, ptr %2, align 8, !tbaa !12
  %14 = getelementptr inbounds nuw %struct.rev_info, ptr %13, i32 0, i32 15
  %15 = load i64, ptr %14, align 8
  %16 = and i64 %15, -36028797018963969
  %17 = or i64 %16, 0
  store i64 %17, ptr %14, align 8
  %18 = load ptr, ptr %2, align 8, !tbaa !12
  %19 = getelementptr inbounds nuw %struct.rev_info, ptr %18, i32 0, i32 15
  %20 = load i64, ptr %19, align 8
  %21 = and i64 %20, -144115188075855873
  %22 = or i64 %21, 0
  store i64 %22, ptr %19, align 8
  %23 = load ptr, ptr %2, align 8, !tbaa !12
  %24 = getelementptr inbounds nuw %struct.rev_info, ptr %23, i32 0, i32 15
  %25 = load i64, ptr %24, align 8
  %26 = and i64 %25, -72057594037927937
  %27 = or i64 %26, 0
  store i64 %27, ptr %24, align 8
  %28 = load ptr, ptr %2, align 8, !tbaa !12
  %29 = getelementptr inbounds nuw %struct.rev_info, ptr %28, i32 0, i32 15
  %30 = load i64, ptr %29, align 8
  %31 = and i64 %30, -9007199254740993
  %32 = or i64 %31, 0
  store i64 %32, ptr %29, align 8
  %33 = load ptr, ptr %2, align 8, !tbaa !12
  %34 = getelementptr inbounds nuw %struct.rev_info, ptr %33, i32 0, i32 15
  %35 = load i64, ptr %34, align 8
  %36 = and i64 %35, -4503599627370497
  %37 = or i64 %36, 0
  store i64 %37, ptr %34, align 8
  %38 = load ptr, ptr %2, align 8, !tbaa !12
  %39 = getelementptr inbounds nuw %struct.rev_info, ptr %38, i32 0, i32 15
  %40 = load i64, ptr %39, align 8
  %41 = and i64 %40, -576460752303423489
  %42 = or i64 %41, 0
  store i64 %42, ptr %39, align 8
  ret void
}

; Function Attrs: nounwind uwtable
define internal void @common_setup(ptr noundef %0) #0 {
  %2 = alloca ptr, align 8
  store ptr %0, ptr %2, align 8, !tbaa !12
  %3 = load ptr, ptr %2, align 8, !tbaa !12
  call void @suppress(ptr noundef %3)
  %4 = load ptr, ptr %2, align 8, !tbaa !12
  %5 = getelementptr inbounds nuw %struct.rev_info, ptr %4, i32 0, i32 15
  %6 = load i64, ptr %5, align 8
  %7 = and i64 %6, -4503599627370497
  %8 = or i64 %7, 4503599627370496
  store i64 %8, ptr %5, align 8
  ret void
}

; Function Attrs: nounwind uwtable
define internal void @set_dense_combined(ptr noundef %0) #0 {
  %2 = alloca ptr, align 8
  store ptr %0, ptr %2, align 8, !tbaa !12
  %3 = load ptr, ptr %2, align 8, !tbaa !12
  call void @common_setup(ptr noundef %3)
  %4 = load ptr, ptr %2, align 8, !tbaa !12
  %5 = getelementptr inbounds nuw %struct.rev_info, ptr %4, i32 0, i32 15
  %6 = load i64, ptr %5, align 8
  %7 = and i64 %6, -36028797018963969
  %8 = or i64 %7, 36028797018963968
  store i64 %8, ptr %5, align 8
  %9 = load ptr, ptr %2, align 8, !tbaa !12
  %10 = getelementptr inbounds nuw %struct.rev_info, ptr %9, i32 0, i32 15
  %11 = load i64, ptr %10, align 8
  %12 = and i64 %11, -144115188075855873
  %13 = or i64 %12, 144115188075855872
  store i64 %13, ptr %10, align 8
  ret void
}

; Function Attrs: nounwind uwtable
define dso_local void @diff_merges_default_to_dense_combined(ptr noundef %0) #0 {
  %2 = alloca ptr, align 8
  store ptr %0, ptr %2, align 8, !tbaa !12
  %3 = load ptr, ptr %2, align 8, !tbaa !12
  %4 = getelementptr inbounds nuw %struct.rev_info, ptr %3, i32 0, i32 15
  %5 = load i64, ptr %4, align 8
  %6 = lshr i64 %5, 51
  %7 = and i64 %6, 1
  %8 = trunc i64 %7 to i32
  %9 = icmp ne i32 %8, 0
  br i1 %9, label %12, label %10

10:                                               ; preds = %1
  %11 = load ptr, ptr %2, align 8, !tbaa !12
  call void @set_dense_combined(ptr noundef %11)
  br label %12

12:                                               ; preds = %10, %1
  ret void
}