; Function Attrs: mustprogress nofree norecurse nosync nounwind willreturn memory(argmem: readwrite) uwtable
define dso_local void @diff_merges_default_to_dense_combined(ptr noundef captures(none) %0) local_unnamed_addr #6 {
  %2 = getelementptr inbounds nuw i8, ptr %0, i64 288
  %3 = load i64, ptr %2, align 8
  %4 = and i64 %3, 2251799813685248
  %.not = icmp eq i64 %4, 0
  br i1 %.not, label %5, label %8

5:                                                ; preds = %1
  %6 = and i64 %3, -1150669704793161729
  %7 = or disjoint i64 %6, 184647584722190336
  store i64 %7, ptr %2, align 8
  br label %8

8:                                                ; preds = %5, %1
  ret void
}